target datalayout = "e-m:e-p270:32:32-p271:32:32-p272:64:64-i64:64-i128:128-f80:128-n8:16:32:64-S128"
target triple = "x86_64-pc-linux-gnu"

%struct.PQExpBufferData = type { ptr, i64, i64 }

@.str.20 = private unnamed_addr constant [44 x i8] c"could not send replication command \22%s\22: %s\00", align 1
@.str.40 = private unnamed_addr constant [29 x i8] c"CREATE_REPLICATION_SLOT \22%s\22\00", align 1
@.str.41 = private unnamed_addr constant [11 x i8] c" TEMPORARY\00", align 1
@.str.42 = private unnamed_addr constant [10 x i8] c" PHYSICAL\00", align 1
@.str.43 = private unnamed_addr constant [14 x i8] c" LOGICAL \22%s\22\00", align 1
@.str.44 = private unnamed_addr constant [3 x i8] c" (\00", align 1
@.str.45 = private unnamed_addr constant [12 x i8] c"RESERVE_WAL\00", align 1
@.str.46 = private unnamed_addr constant [10 x i8] c"TWO_PHASE\00", align 1
@.str.47 = private unnamed_addr constant [9 x i8] c"SNAPSHOT\00", align 1
@.str.48 = private unnamed_addr constant [8 x i8] c"nothing\00", align 1
@.str.49 = private unnamed_addr constant [18 x i8] c"NOEXPORT_SNAPSHOT\00", align 1
@.str.50 = private unnamed_addr constant [6 x i8] c"42710\00", align 1
@.str.51 = private unnamed_addr constant [98 x i8] c"could not create replication slot \22%s\22: got %d rows and %d fields, expected %d rows and %d fields\00", align 1
@.str.54 = private unnamed_addr constant [3 x i8] c", \00", align 1
@.str.55 = private unnamed_addr constant [4 x i8] c" %s\00", align 1

; Function Attrs: nounwind uwtable
define dso_local void @AppendPlainCommandOption(ptr noundef %0, i1 noundef zeroext %1, ptr noundef %2) #0 {
  %4 = alloca ptr, align 8
  %5 = alloca i8, align 1
  %6 = alloca ptr, align 8
  store ptr %0, ptr %4, align 8
  %7 = zext i1 %1 to i8
  store i8 %7, ptr %5, align 1
  store ptr %2, ptr %6, align 8
  %8 = load ptr, ptr %4, align 8
  %9 = getelementptr inbounds nuw %struct.PQExpBufferData, ptr %8, i32 0, i32 1
  %10 = load i64, ptr %9, align 8
  %11 = icmp ugt i64 %10, 0
  br i1 %11, label %12, label %32

12:                                               ; preds = %3
  %13 = load ptr, ptr %4, align 8
  %14 = getelementptr inbounds nuw %struct.PQExpBufferData, ptr %13, i32 0, i32 0
  %15 = load ptr, ptr %14, align 8
  %16 = load ptr, ptr %4, align 8
  %17 = getelementptr inbounds nuw %struct.PQExpBufferData, ptr %16, i32 0, i32 1
  %18 = load i64, ptr %17, align 8
  %19 = sub i64 %18, 1
  %20 = getelementptr inbounds nuw i8, ptr %15, i64 %19
  %21 = load i8, ptr %20, align 1
  %22 = sext i8 %21 to i32
  %23 = icmp ne i32 %22, 40
  br i1 %23, label %24, label %32

24:                                               ; preds = %12
  %25 = load i8, ptr %5, align 1, !range !7, !noundef !8
  %26 = trunc i8 %25 to i1
  br i1 %26, label %27, label %29

27:                                               ; preds = %24
  %28 = load ptr, ptr %4, align 8
  call void @appendPQExpBufferStr(ptr noundef %28, ptr noundef @.str.54)
  br label %31

29:                                               ; preds = %24
  %30 = load ptr, ptr %4, align 8
  call void @appendPQExpBufferChar(ptr noundef %30, i8 noundef signext 32)
  br label %31

31:                                               ; preds = %29, %27
  br label %32

32:                                               ; preds = %31, %12, %3
  %33 = load ptr, ptr %4, align 8
  %34 = load ptr, ptr %6, align 8
  call void (ptr, ptr, ...) @appendPQExpBuffer(ptr noundef %33, ptr noundef @.str.55, ptr noundef %34)
  ret void
}

; Function Attrs: nounwind uwtable
define dso_local zeroext i1 @CreateReplicationSlot(ptr noundef %0, ptr noundef %1, ptr noundef %2, i1 noundef zeroext %3, i1 noundef zeroext %4, i1 noundef zeroext %5, i1 noundef zeroext %6, i1 noundef zeroext %7) #0 {
  %9 = alloca i1, align 1
  %10 = alloca ptr, align 8
  %11 = alloca ptr, align 8
  %12 = alloca ptr, align 8
  %13 = alloca i8, align 1
  %14 = alloca i8, align 1
  %15 = alloca i8, align 1
  %16 = alloca i8, align 1
  %17 = alloca i8, align 1
  %18 = alloca ptr, align 8
  %19 = alloca ptr, align 8
  %20 = alloca i8, align 1
  %21 = alloca ptr, align 8
  %22 = alloca i32, align 4
  store ptr %0, ptr %10, align 8
  store ptr %1, ptr %11, align 8
  store ptr %2, ptr %12, align 8
  %23 = zext i1 %3 to i8
  store i8 %23, ptr %13, align 1
  %24 = zext i1 %4 to i8
  store i8 %24, ptr %14, align 1
  %25 = zext i1 %5 to i8
  store i8 %25, ptr %15, align 1
  %26 = zext i1 %6 to i8
  store i8 %26, ptr %16, align 1
  %27 = zext i1 %7 to i8
  store i8 %27, ptr %17, align 1
  call void @llvm.lifetime.start.p0(i64 8, ptr %18) #9
  call void @llvm.lifetime.start.p0(i64 8, ptr %19) #9
  call void @llvm.lifetime.start.p0(i64 1, ptr %20) #9
  %28 = load ptr, ptr %10, align 8
  %29 = call i32 @PQserverVersion(ptr noundef %28)
  %30 = icmp sge i32 %29, 150000
  %31 = zext i1 %30 to i8
  store i8 %31, ptr %20, align 1
  %32 = call ptr @createPQExpBuffer()
  store ptr %32, ptr %18, align 8
  %33 = load ptr, ptr %18, align 8
  %34 = load ptr, ptr %11, align 8
  call void (ptr, ptr, ...) @appendPQExpBuffer(ptr noundef %33, ptr noundef @.str.40, ptr noundef %34)
  %35 = load i8, ptr %13, align 1, !range !7, !noundef !8
  %36 = trunc i8 %35 to i1
  br i1 %36, label %37, label %39

37:                                               ; preds = %8
  %38 = load ptr, ptr %18, align 8
  call void @appendPQExpBufferStr(ptr noundef %38, ptr noundef @.str.41)
  br label %39

39:                                               ; preds = %37, %8
  %40 = load i8, ptr %14, align 1, !range !7, !noundef !8
  %41 = trunc i8 %40 to i1
  br i1 %41, label %42, label %44

42:                                               ; preds = %39
  %43 = load ptr, ptr %18, align 8
  call void @appendPQExpBufferStr(ptr noundef %43, ptr noundef @.str.42)
  br label %47

44:                                               ; preds = %39
  %45 = load ptr, ptr %18, align 8
  %46 = load ptr, ptr %12, align 8
  call void (ptr, ptr, ...) @appendPQExpBuffer(ptr noundef %45, ptr noundef @.str.43, ptr noundef %46)
  br label %47

47:                                               ; preds = %44, %42
  %48 = load i8, ptr %20, align 1, !range !7, !noundef !8
  %49 = trunc i8 %48 to i1
  br i1 %49, label %50, label %52

50:                                               ; preds = %47
  %51 = load ptr, ptr %18, align 8
  call void @appendPQExpBufferStr(ptr noundef %51, ptr noundef @.str.44)
  br label %52

52:                                               ; preds = %50, %47
  %53 = load i8, ptr %14, align 1, !range !7, !noundef !8
  %54 = trunc i8 %53 to i1
  br i1 %54, label %55, label %63

55:                                               ; preds = %52
  %56 = load i8, ptr %15, align 1, !range !7, !noundef !8
  %57 = trunc i8 %56 to i1
  br i1 %57, label %58, label %62

58:                                               ; preds = %55
  %59 = load ptr, ptr %18, align 8
  %60 = load i8, ptr %20, align 1, !range !7, !noundef !8
  %61 = trunc i8 %60 to i1
  call void @AppendPlainCommandOption(ptr noundef %59, i1 noundef zeroext %61, ptr noundef @.str.45)
  br label %62

62:                                               ; preds = %58, %55
  br label %91

63:                                               ; preds = %52
  %64 = load i8, ptr %17, align 1, !range !7, !noundef !8
  %65 = trunc i8 %64 to i1
  br i1 %65, label %66, label %74

66:                                               ; preds = %63
  %67 = load ptr, ptr %10, align 8
  %68 = call i32 @PQserverVersion(ptr noundef %67)
  %69 = icmp sge i32 %68, 150000
  br i1 %69, label %70, label %74

70:                                               ; preds = %66
  %71 = load ptr, ptr %18, align 8
  %72 = load i8, ptr %20, align 1, !range !7, !noundef !8
  %73 = trunc i8 %72 to i1
  call void @AppendPlainCommandOption(ptr noundef %71, i1 noundef zeroext %73, ptr noundef @.str.46)
  br label %74

74:                                               ; preds = %70, %66, %63
  %75 = load ptr, ptr %10, align 8
  %76 = call i32 @PQserverVersion(ptr noundef %75)
  %77 = icmp sge i32 %76, 100000
  br i1 %77, label %78, label %90

78:                                               ; preds = %74
  %79 = load i8, ptr %20, align 1, !range !7, !noundef !8
  %80 = trunc i8 %79 to i1
  br i1 %80, label %81, label %85

81:                                               ; preds = %78
  %82 = load ptr, ptr %18, align 8
  %83 = load i8, ptr %20, align 1, !range !7, !noundef !8
  %84 = trunc i8 %83 to i1
  call void @AppendStringCommandOption(ptr noundef %82, i1 noundef zeroext %84, ptr noundef @.str.47, ptr noundef @.str.48)
  br label %89

85:                                               ; preds = %78
  %86 = load ptr, ptr %18, align 8
  %87 = load i8, ptr %20, align 1, !range !7, !noundef !8
  %88 = trunc i8 %87 to i1
  call void @AppendPlainCommandOption(ptr noundef %86, i1 noundef zeroext %88, ptr noundef @.str.49)
  br label %89

89:                                               ; preds = %85, %81
  br label %90

90:                                               ; preds = %89, %74
  br label %91

91:                                               ; preds = %90, %62
  %92 = load i8, ptr %20, align 1, !range !7, !noundef !8
  %93 = trunc i8 %92 to i1
  br i1 %93, label %94, label %121

94:                                               ; preds = %91
  %95 = load ptr, ptr %18, align 8
  %96 = getelementptr inbounds nuw %struct.PQExpBufferData, ptr %95, i32 0, i32 0
  %97 = load ptr, ptr %96, align 8
  %98 = load ptr, ptr %18, align 8
  %99 = getelementptr inbounds nuw %struct.PQExpBufferData, ptr %98, i32 0, i32 1
  %100 = load i64, ptr %99, align 8
  %101 = sub i64 %100, 1
  %102 = getelementptr inbounds nuw i8, ptr %97, i64 %101
  %103 = load i8, ptr %102, align 1
  %104 = sext i8 %103 to i32
  %105 = icmp eq i32 %104, 40
  br i1 %105, label %106, label %118

106:                                              ; preds = %94
  %107 = load ptr, ptr %18, align 8
  %108 = getelementptr inbounds nuw %struct.PQExpBufferData, ptr %107, i32 0, i32 1
  %109 = load i64, ptr %108, align 8
  %110 = sub i64 %109, 2
  store i64 %110, ptr %108, align 8
  %111 = load ptr, ptr %18, align 8
  %112 = getelementptr inbounds nuw %struct.PQExpBufferData, ptr %111, i32 0, i32 0
  %113 = load ptr, ptr %112, align 8
  %114 = load ptr, ptr %18, align 8
  %115 = getelementptr inbounds nuw %struct.PQExpBufferData, ptr %114, i32 0, i32 1
  %116 = load i64, ptr %115, align 8
  %117 = getelementptr inbounds nuw i8, ptr %113, i64 %116
  store i8 0, ptr %117, align 1
  br label %120

118:                                              ; preds = %94
  %119 = load ptr, ptr %18, align 8
  call void @appendPQExpBufferChar(ptr noundef %119, i8 noundef signext 41)
  br label %120

120:                                              ; preds = %118, %106
  br label %121

121:                                              ; preds = %120, %91
  %122 = load ptr, ptr %10, align 8
  %123 = load ptr, ptr %18, align 8
  %124 = getelementptr inbounds nuw %struct.PQExpBufferData, ptr %123, i32 0, i32 0
  %125 = load ptr, ptr %124, align 8
  %126 = call ptr @PQexec(ptr noundef %122, ptr noundef %125)
  store ptr %126, ptr %19, align 8
  %127 = load ptr, ptr %19, align 8
  %128 = call i32 @PQresultStatus(ptr noundef %127)
  %129 = icmp ne i32 %128, 2
  br i1 %129, label %130, label %154

130:                                              ; preds = %121
  call void @llvm.lifetime.start.p0(i64 8, ptr %21) #9
  %131 = load ptr, ptr %19, align 8
  %132 = call ptr @PQresultErrorField(ptr noundef %131, i32 noundef 67)
  store ptr %132, ptr %21, align 8
  %133 = load i8, ptr %16, align 1, !range !7, !noundef !8
  %134 = trunc i8 %133 to i1
  br i1 %134, label %135, label %145

135:                                              ; preds = %130
  %136 = load ptr, ptr %21, align 8
  %137 = icmp ne ptr %136, null
  br i1 %137, label %138, label %145

138:                                              ; preds = %135
  %139 = load ptr, ptr %21, align 8
  %140 = call i32 @strcmp(ptr noundef %139, ptr noundef @.str.50) #11
  %141 = icmp eq i32 %140, 0
  br i1 %141, label %142, label %145

142:                                              ; preds = %138
  %143 = load ptr, ptr %18, align 8
  call void @destroyPQExpBuffer(ptr noundef %143)
  %144 = load ptr, ptr %19, align 8
  call void @PQclear(ptr noundef %144)
  store i1 true, ptr %9, align 1
  store i32 1, ptr %22, align 4
  br label %153

145:                                              ; preds = %138, %135, %130
  %146 = load ptr, ptr %18, align 8
  %147 = getelementptr inbounds nuw %struct.PQExpBufferData, ptr %146, i32 0, i32 0
  %148 = load ptr, ptr %147, align 8
  %149 = load ptr, ptr %10, align 8
  %150 = call ptr @PQerrorMessage(ptr noundef %149)
  call void (i32, i32, ptr, ...) @pg_log_generic(i32 noundef 4, i32 noundef 0, ptr noundef @.str.20, ptr noundef %148, ptr noundef %150)
  %151 = load ptr, ptr %18, align 8
  call void @destroyPQExpBuffer(ptr noundef %151)
  %152 = load ptr, ptr %19, align 8
  call void @PQclear(ptr noundef %152)
  store i1 false, ptr %9, align 1
  store i32 1, ptr %22, align 4
  br label %153

153:                                              ; preds = %145, %142
  call void @llvm.lifetime.end.p0(i64 8, ptr %21) #9
  br label %173

154:                                              ; preds = %121
  %155 = load ptr, ptr %19, align 8
  %156 = call i32 @PQntuples(ptr noundef %155)
  %157 = icmp ne i32 %156, 1
  br i1 %157, label %162, label %158

158:                                              ; preds = %154
  %159 = load ptr, ptr %19, align 8
  %160 = call i32 @PQnfields(ptr noundef %159)
  %161 = icmp ne i32 %160, 4
  br i1 %161, label %162, label %170

162:                                              ; preds = %158, %154
  %163 = load ptr, ptr %11, align 8
  %164 = load ptr, ptr %19, align 8
  %165 = call i32 @PQntuples(ptr noundef %164)
  %166 = load ptr, ptr %19, align 8
  %167 = call i32 @PQnfields(ptr noundef %166)
  call void (i32, i32, ptr, ...) @pg_log_generic(i32 noundef 4, i32 noundef 0, ptr noundef @.str.51, ptr noundef %163, i32 noundef %165, i32 noundef %167, i32 noundef 1, i32 noundef 4)
  %168 = load ptr, ptr %18, align 8
  call void @destroyPQExpBuffer(ptr noundef %168)
  %169 = load ptr, ptr %19, align 8
  call void @PQclear(ptr noundef %169)
  store i1 false, ptr %9, align 1
  store i32 1, ptr %22, align 4
  br label %173

170:                                              ; preds = %158
  %171 = load ptr, ptr %18, align 8
  call void @destroyPQExpBuffer(ptr noundef %171)
  %172 = load ptr, ptr %19, align 8
  call void @PQclear(ptr noundef %172)
  store i1 true, ptr %9, align 1
  store i32 1, ptr %22, align 4
  br label %173

173:                                              ; preds = %170, %162, %153
  call void @llvm.lifetime.end.p0(i64 1, ptr %20) #9
  call void @llvm.lifetime.end.p0(i64 8, ptr %19) #9
  call void @llvm.lifetime.end.p0(i64 8, ptr %18) #9
  %174 = load i1, ptr %9, align 1
  ret i1 %174
}