; Function Attrs: nounwind uwtable
define dso_local noundef zeroext i1 @CreateReplicationSlot(ptr noundef %0, ptr noundef %1, ptr noundef %2, i1 noundef zeroext %3, i1 noundef zeroext %4, i1 noundef zeroext %5, i1 noundef zeroext %6, i1 noundef zeroext %7) local_unnamed_addr #0 {
  %9 = tail call i32 @PQserverVersion(ptr noundef %0) #15
  %10 = icmp sgt i32 %9, 149999
  %11 = tail call ptr @createPQExpBuffer() #15
  tail call void (ptr, ptr, ...) @appendPQExpBuffer(ptr noundef %11, ptr noundef nonnull @.str.40, ptr noundef %1) #15
  br i1 %3, label %12, label %13

12:                                               ; preds = %8
  tail call void @appendPQExpBufferStr(ptr noundef %11, ptr noundef nonnull @.str.41) #15
  br label %13

13:                                               ; preds = %12, %8
  br i1 %4, label %14, label %15

14:                                               ; preds = %13
  tail call void @appendPQExpBufferStr(ptr noundef %11, ptr noundef nonnull @.str.42) #15
  br label %16

15:                                               ; preds = %13
  tail call void (ptr, ptr, ...) @appendPQExpBuffer(ptr noundef %11, ptr noundef nonnull @.str.43, ptr noundef %2) #15
  br label %16

16:                                               ; preds = %15, %14
  br i1 %10, label %17, label %18

17:                                               ; preds = %16
  tail call void @appendPQExpBufferStr(ptr noundef %11, ptr noundef nonnull @.str.44) #15
  br label %18

18:                                               ; preds = %17, %16
  br i1 %4, label %19, label %31

19:                                               ; preds = %18
  br i1 %5, label %20, label %59

20:                                               ; preds = %19
  %21 = getelementptr inbounds nuw i8, ptr %11, i64 8
  %22 = load i64, ptr %21, align 8
  %.not.i = icmp eq i64 %22, 0
  br i1 %.not.i, label %AppendPlainCommandOption.exit, label %23

23:                                               ; preds = %20
  %24 = load ptr, ptr %11, align 8
  %25 = getelementptr i8, ptr %24, i64 %22
  %26 = getelementptr i8, ptr %25, i64 -1
  %27 = load i8, ptr %26, align 1
  %.not7.i = icmp eq i8 %27, 40
  br i1 %.not7.i, label %AppendPlainCommandOption.exit, label %28

28:                                               ; preds = %23
  br i1 %10, label %29, label %30

29:                                               ; preds = %28
  tail call void @appendPQExpBufferStr(ptr noundef nonnull %11, ptr noundef nonnull @.str.54) #15
  br label %AppendPlainCommandOption.exit

30:                                               ; preds = %28
  tail call void @appendPQExpBufferChar(ptr noundef nonnull %11, i8 noundef signext 32) #15
  br label %AppendPlainCommandOption.exit

AppendPlainCommandOption.exit:                    ; preds = %20, %23, %29, %30
  tail call void (ptr, ptr, ...) @appendPQExpBuffer(ptr noundef nonnull %11, ptr noundef nonnull @.str.55, ptr noundef nonnull @.str.45) #15
  br label %59

31:                                               ; preds = %18
  br i1 %7, label %32, label %46

32:                                               ; preds = %31
  %33 = tail call i32 @PQserverVersion(ptr noundef %0) #15
  %34 = icmp sgt i32 %33, 149999
  br i1 %34, label %35, label %46

35:                                               ; preds = %32
  %36 = getelementptr inbounds nuw i8, ptr %11, i64 8
  %37 = load i64, ptr %36, align 8
  %.not.i60 = icmp eq i64 %37, 0
  br i1 %.not.i60, label %AppendPlainCommandOption.exit62, label %38

38:                                               ; preds = %35
  %39 = load ptr, ptr %11, align 8
  %40 = getelementptr i8, ptr %39, i64 %37
  %41 = getelementptr i8, ptr %40, i64 -1
  %42 = load i8, ptr %41, align 1
  %.not7.i61 = icmp eq i8 %42, 40
  br i1 %.not7.i61, label %AppendPlainCommandOption.exit62, label %43

43:                                               ; preds = %38
  br i1 %10, label %44, label %45

44:                                               ; preds = %43
  tail call void @appendPQExpBufferStr(ptr noundef nonnull %11, ptr noundef nonnull @.str.54) #15
  br label %AppendPlainCommandOption.exit62

45:                                               ; preds = %43
  tail call void @appendPQExpBufferChar(ptr noundef nonnull %11, i8 noundef signext 32) #15
  br label %AppendPlainCommandOption.exit62

AppendPlainCommandOption.exit62:                  ; preds = %35, %38, %44, %45
  tail call void (ptr, ptr, ...) @appendPQExpBuffer(ptr noundef nonnull %11, ptr noundef nonnull @.str.55, ptr noundef nonnull @.str.46) #15
  br label %46

46:                                               ; preds = %AppendPlainCommandOption.exit62, %32, %31
  %47 = tail call i32 @PQserverVersion(ptr noundef %0) #15
  %48 = icmp sgt i32 %47, 99999
  br i1 %48, label %49, label %59

49:                                               ; preds = %46
  br i1 %10, label %.thread, label %50

.thread:                                          ; preds = %49
  tail call void @AppendStringCommandOption(ptr noundef %11, i1 noundef zeroext true, ptr noundef nonnull @.str.47, ptr noundef nonnull @.str.48)
  br label %60

50:                                               ; preds = %49
  %51 = getelementptr inbounds nuw i8, ptr %11, i64 8
  %52 = load i64, ptr %51, align 8
  %.not.i63 = icmp eq i64 %52, 0
  br i1 %.not.i63, label %.thread66, label %53

53:                                               ; preds = %50
  %54 = load ptr, ptr %11, align 8
  %55 = getelementptr i8, ptr %54, i64 %52
  %56 = getelementptr i8, ptr %55, i64 -1
  %57 = load i8, ptr %56, align 1
  %.not7.i64 = icmp eq i8 %57, 40
  br i1 %.not7.i64, label %.thread66, label %58

58:                                               ; preds = %53
  tail call void @appendPQExpBufferChar(ptr noundef nonnull %11, i8 noundef signext 32) #15
  br label %.thread66

.thread66:                                        ; preds = %58, %53, %50
  tail call void (ptr, ptr, ...) @appendPQExpBuffer(ptr noundef nonnull %11, ptr noundef nonnull @.str.55, ptr noundef nonnull @.str.49) #15
  br label %72

59:                                               ; preds = %46, %19, %AppendPlainCommandOption.exit
  br i1 %10, label %60, label %72

60:                                               ; preds = %.thread, %59
  %61 = load ptr, ptr %11, align 8
  %62 = getelementptr inbounds nuw i8, ptr %11, i64 8
  %63 = load i64, ptr %62, align 8
  %64 = getelementptr i8, ptr %61, i64 %63
  %65 = getelementptr i8, ptr %64, i64 -1
  %66 = load i8, ptr %65, align 1
  %67 = icmp eq i8 %66, 40
  br i1 %67, label %68, label %71

68:                                               ; preds = %60
  %69 = add i64 %63, -2
  store i64 %69, ptr %62, align 8
  %70 = getelementptr inbounds nuw i8, ptr %61, i64 %69
  store i8 0, ptr %70, align 1
  br label %72

71:                                               ; preds = %60
  tail call void @appendPQExpBufferChar(ptr noundef nonnull %11, i8 noundef signext 41) #15
  br label %72

72:                                               ; preds = %.thread66, %68, %71, %59
  %73 = load ptr, ptr %11, align 8
  %74 = tail call ptr @PQexec(ptr noundef %0, ptr noundef %73) #15
  %75 = tail call i32 @PQresultStatus(ptr noundef %74) #15
  %.not = icmp eq i32 %75, 2
  br i1 %.not, label %85, label %76

76:                                               ; preds = %72
  %77 = tail call ptr @PQresultErrorField(ptr noundef %74, i32 noundef 67) #15
  %78 = icmp ne ptr %77, null
  %or.cond = select i1 %6, i1 %78, i1 false
  br i1 %or.cond, label %79, label %82

79:                                               ; preds = %76
  %80 = tail call i32 @strcmp(ptr noundef nonnull dereferenceable(1) %77, ptr noundef nonnull dereferenceable(6) @.str.50) #17
  %81 = icmp eq i32 %80, 0
  br i1 %81, label %92, label %82

82:                                               ; preds = %79, %76
  %83 = load ptr, ptr %11, align 8
  %84 = tail call ptr @PQerrorMessage(ptr noundef %0) #15
  tail call void (i32, i32, ptr, ...) @pg_log_generic(i32 noundef 4, i32 noundef 0, ptr noundef nonnull @.str.20, ptr noundef %83, ptr noundef %84) #15
  br label %92

85:                                               ; preds = %72
  %86 = tail call i32 @PQntuples(ptr noundef %74) #15
  %.not58 = icmp eq i32 %86, 1
  br i1 %.not58, label %87, label %89

87:                                               ; preds = %85
  %88 = tail call i32 @PQnfields(ptr noundef %74) #15
  %.not59 = icmp eq i32 %88, 4
  br i1 %.not59, label %92, label %89

89:                                               ; preds = %87, %85
  %90 = tail call i32 @PQntuples(ptr noundef %74) #15
  %91 = tail call i32 @PQnfields(ptr noundef %74) #15
  tail call void (i32, i32, ptr, ...) @pg_log_generic(i32 noundef 4, i32 noundef 0, ptr noundef nonnull @.str.51, ptr noundef %1, i32 noundef %90, i32 noundef %91, i32 noundef 1, i32 noundef 4) #15
  br label %92

92:                                               ; preds = %87, %79, %82, %89
  %.1 = phi i1 [ false, %89 ], [ false, %82 ], [ true, %79 ], [ true, %87 ]
  tail call void @destroyPQExpBuffer(ptr noundef nonnull %11) #15
  tail call void @PQclear(ptr noundef %74) #15
  ret i1 %.1
}